target datalayout = "e-m:e-p270:32:32-p271:32:32-p272:64:64-i64:64-i128:128-f80:128-n8:16:32:64-S128"
target triple = "x86_64-pc-linux-gnu"

%"class.cv::detail::tracking::online_boosting::EstimatedGaussDistribution" = type { ptr, float, float, float, float, float, float }
%"class.cv::detail::tracking::online_boosting::ClassifierThreshold" = type { ptr, ptr, ptr, float, i32 }

; Function Attrs: inlinehint mustprogress nounwind uwtable
define linkonce_odr noundef float @_ZSt4sqrtf(float noundef %0) #6 comdat {
  %2 = alloca float, align 4
  store float %0, ptr %2, align 4, !tbaa !38
  %3 = load float, ptr %2, align 4, !tbaa !38
  %4 = call float @sqrtf(float noundef %3) #3, !tbaa !8
  ret float %4
}

; Function Attrs: mustprogress nounwind uwtable
define hidden noundef float @_ZN2cv6detail8tracking15online_boosting26EstimatedGaussDistribution7getMeanEv(ptr noundef nonnull align 8 dereferenceable(32) %0) #5 align 2 {
  %2 = alloca ptr, align 8
  store ptr %0, ptr %2, align 8, !tbaa !157
  %3 = load ptr, ptr %2, align 8
  %4 = getelementptr inbounds nuw %"class.cv::detail::tracking::online_boosting::EstimatedGaussDistribution", ptr %3, i32 0, i32 1
  %5 = load float, ptr %4, align 8, !tbaa !159
  ret float %5
}

; Function Attrs: mustprogress uwtable
define hidden void @_ZN2cv6detail8tracking15online_boosting26EstimatedGaussDistribution6updateEf(ptr noundef nonnull align 8 dereferenceable(32) %0, float noundef %1) #4 align 2 {
  %3 = alloca ptr, align 8
  %4 = alloca float, align 4
  %5 = alloca float, align 4
  %6 = alloca float, align 4
  %7 = alloca float, align 4
  store ptr %0, ptr %3, align 8, !tbaa !157
  store float %1, ptr %4, align 4, !tbaa !38
  %8 = load ptr, ptr %3, align 8
  call void @llvm.lifetime.start.p0(i64 4, ptr %5) #3
  call void @llvm.lifetime.start.p0(i64 4, ptr %6) #3
  store float 0x3F50624DE0000000, ptr %6, align 4, !tbaa !38
  %9 = getelementptr inbounds nuw %"class.cv::detail::tracking::online_boosting::EstimatedGaussDistribution", ptr %8, i32 0, i32 3
  %10 = load float, ptr %9, align 8, !tbaa !162
  %11 = getelementptr inbounds nuw %"class.cv::detail::tracking::online_boosting::EstimatedGaussDistribution", ptr %8, i32 0, i32 3
  %12 = load float, ptr %11, align 8, !tbaa !162
  %13 = getelementptr inbounds nuw %"class.cv::detail::tracking::online_boosting::EstimatedGaussDistribution", ptr %8, i32 0, i32 5
  %14 = load float, ptr %13, align 8, !tbaa !163
  %15 = fadd float %12, %14
  %16 = fdiv float %10, %15
  store float %16, ptr %5, align 4, !tbaa !38
  %17 = load float, ptr %5, align 4, !tbaa !38
  %18 = load float, ptr %6, align 4, !tbaa !38
  %19 = fcmp olt float %17, %18
  br i1 %19, label %20, label %22

20:                                               ; preds = %2
  %21 = load float, ptr %6, align 4, !tbaa !38
  store float %21, ptr %5, align 4, !tbaa !38
  br label %22

22:                                               ; preds = %20, %2
  %23 = load float, ptr %5, align 4, !tbaa !38
  %24 = load float, ptr %4, align 4, !tbaa !38
  %25 = load float, ptr %5, align 4, !tbaa !38
  %26 = fsub float 1.000000e+00, %25
  %27 = getelementptr inbounds nuw %"class.cv::detail::tracking::online_boosting::EstimatedGaussDistribution", ptr %8, i32 0, i32 1
  %28 = load float, ptr %27, align 8, !tbaa !159
  %29 = fmul float %26, %28
  %30 = call float @llvm.fmuladd.f32(float %23, float %24, float %29)
  %31 = getelementptr inbounds nuw %"class.cv::detail::tracking::online_boosting::EstimatedGaussDistribution", ptr %8, i32 0, i32 1
  store float %30, ptr %31, align 8, !tbaa !159
  %32 = getelementptr inbounds nuw %"class.cv::detail::tracking::online_boosting::EstimatedGaussDistribution", ptr %8, i32 0, i32 3
  %33 = load float, ptr %32, align 8, !tbaa !162
  %34 = getelementptr inbounds nuw %"class.cv::detail::tracking::online_boosting::EstimatedGaussDistribution", ptr %8, i32 0, i32 5
  %35 = load float, ptr %34, align 8, !tbaa !163
  %36 = fmul float %33, %35
  %37 = getelementptr inbounds nuw %"class.cv::detail::tracking::online_boosting::EstimatedGaussDistribution", ptr %8, i32 0, i32 3
  %38 = load float, ptr %37, align 8, !tbaa !162
  %39 = getelementptr inbounds nuw %"class.cv::detail::tracking::online_boosting::EstimatedGaussDistribution", ptr %8, i32 0, i32 5
  %40 = load float, ptr %39, align 8, !tbaa !163
  %41 = fadd float %38, %40
  %42 = fdiv float %36, %41
  %43 = getelementptr inbounds nuw %"class.cv::detail::tracking::online_boosting::EstimatedGaussDistribution", ptr %8, i32 0, i32 3
  store float %42, ptr %43, align 8, !tbaa !162
  %44 = getelementptr inbounds nuw %"class.cv::detail::tracking::online_boosting::EstimatedGaussDistribution", ptr %8, i32 0, i32 4
  %45 = load float, ptr %44, align 4, !tbaa !164
  %46 = getelementptr inbounds nuw %"class.cv::detail::tracking::online_boosting::EstimatedGaussDistribution", ptr %8, i32 0, i32 4
  %47 = load float, ptr %46, align 4, !tbaa !164
  %48 = getelementptr inbounds nuw %"class.cv::detail::tracking::online_boosting::EstimatedGaussDistribution", ptr %8, i32 0, i32 6
  %49 = load float, ptr %48, align 4, !tbaa !165
  %50 = fadd float %47, %49
  %51 = fdiv float %45, %50
  store float %51, ptr %5, align 4, !tbaa !38
  %52 = load float, ptr %5, align 4, !tbaa !38
  %53 = load float, ptr %6, align 4, !tbaa !38
  %54 = fcmp olt float %52, %53
  br i1 %54, label %55, label %57

55:                                               ; preds = %22
  %56 = load float, ptr %6, align 4, !tbaa !38
  store float %56, ptr %5, align 4, !tbaa !38
  br label %57

57:                                               ; preds = %55, %22
  call void @llvm.lifetime.start.p0(i64 4, ptr %7) #3
  %58 = load float, ptr %5, align 4, !tbaa !38
  %59 = getelementptr inbounds nuw %"class.cv::detail::tracking::online_boosting::EstimatedGaussDistribution", ptr %8, i32 0, i32 1
  %60 = load float, ptr %59, align 8, !tbaa !159
  %61 = load float, ptr %4, align 4, !tbaa !38
  %62 = fsub float %60, %61
  %63 = fmul float %58, %62
  %64 = getelementptr inbounds nuw %"class.cv::detail::tracking::online_boosting::EstimatedGaussDistribution", ptr %8, i32 0, i32 1
  %65 = load float, ptr %64, align 8, !tbaa !159
  %66 = load float, ptr %4, align 4, !tbaa !38
  %67 = fsub float %65, %66
  %68 = load float, ptr %5, align 4, !tbaa !38
  %69 = fsub float 1.000000e+00, %68
  %70 = getelementptr inbounds nuw %"class.cv::detail::tracking::online_boosting::EstimatedGaussDistribution", ptr %8, i32 0, i32 2
  %71 = load float, ptr %70, align 4, !tbaa !161
  %72 = fmul float %69, %71
  %73 = getelementptr inbounds nuw %"class.cv::detail::tracking::online_boosting::EstimatedGaussDistribution", ptr %8, i32 0, i32 2
  %74 = load float, ptr %73, align 4, !tbaa !161
  %75 = fmul float %72, %74
  %76 = call float @llvm.fmuladd.f32(float %63, float %67, float %75)
  store float %76, ptr %7, align 4, !tbaa !38
  %77 = getelementptr inbounds nuw %"class.cv::detail::tracking::online_boosting::EstimatedGaussDistribution", ptr %8, i32 0, i32 4
  %78 = load float, ptr %77, align 4, !tbaa !164
  %79 = getelementptr inbounds nuw %"class.cv::detail::tracking::online_boosting::EstimatedGaussDistribution", ptr %8, i32 0, i32 5
  %80 = load float, ptr %79, align 8, !tbaa !163
  %81 = fmul float %78, %80
  %82 = getelementptr inbounds nuw %"class.cv::detail::tracking::online_boosting::EstimatedGaussDistribution", ptr %8, i32 0, i32 4
  %83 = load float, ptr %82, align 4, !tbaa !164
  %84 = getelementptr inbounds nuw %"class.cv::detail::tracking::online_boosting::EstimatedGaussDistribution", ptr %8, i32 0, i32 6
  %85 = load float, ptr %84, align 4, !tbaa !165
  %86 = fadd float %83, %85
  %87 = fdiv float %81, %86
  %88 = getelementptr inbounds nuw %"class.cv::detail::tracking::online_boosting::EstimatedGaussDistribution", ptr %8, i32 0, i32 4
  store float %87, ptr %88, align 4, !tbaa !164
  %89 = load float, ptr %7, align 4, !tbaa !38
  %90 = call noundef float @_ZSt4sqrtf(float noundef %89)
  %91 = getelementptr inbounds nuw %"class.cv::detail::tracking::online_boosting::EstimatedGaussDistribution", ptr %8, i32 0, i32 2
  store float %90, ptr %91, align 4, !tbaa !161
  %92 = getelementptr inbounds nuw %"class.cv::detail::tracking::online_boosting::EstimatedGaussDistribution", ptr %8, i32 0, i32 2
  %93 = load float, ptr %92, align 4, !tbaa !161
  %94 = fcmp ole float %93, 1.000000e+00
  br i1 %94, label %95, label %97

95:                                               ; preds = %57
  %96 = getelementptr inbounds nuw %"class.cv::detail::tracking::online_boosting::EstimatedGaussDistribution", ptr %8, i32 0, i32 2
  store float 1.000000e+00, ptr %96, align 4, !tbaa !161
  br label %97

97:                                               ; preds = %95, %57
  call void @llvm.lifetime.end.p0(i64 4, ptr %7) #3
  call void @llvm.lifetime.end.p0(i64 4, ptr %6) #3
  call void @llvm.lifetime.end.p0(i64 4, ptr %5) #3
  ret void
}

; Function Attrs: mustprogress uwtable
define hidden void @_ZN2cv6detail8tracking15online_boosting19ClassifierThreshold6updateEfi(ptr noundef nonnull align 8 dereferenceable(32) %0, float noundef %1, i32 noundef %2) #4 align 2 {
  %4 = alloca ptr, align 8
  %5 = alloca float, align 4
  %6 = alloca i32, align 4
  store ptr %0, ptr %4, align 8, !tbaa !168
  store float %1, ptr %5, align 4, !tbaa !38
  store i32 %2, ptr %6, align 4, !tbaa !8
  %7 = load ptr, ptr %4, align 8
  %8 = load i32, ptr %6, align 4, !tbaa !8
  %9 = icmp eq i32 %8, 1
  br i1 %9, label %10, label %14

10:                                               ; preds = %3
  %11 = getelementptr inbounds nuw %"class.cv::detail::tracking::online_boosting::ClassifierThreshold", ptr %7, i32 0, i32 1
  %12 = load ptr, ptr %11, align 8, !tbaa !169
  %13 = load float, ptr %5, align 4, !tbaa !38
  call void @_ZN2cv6detail8tracking15online_boosting26EstimatedGaussDistribution6updateEf(ptr noundef nonnull align 8 dereferenceable(32) %12, float noundef %13)
  br label %18

14:                                               ; preds = %3
  %15 = getelementptr inbounds nuw %"class.cv::detail::tracking::online_boosting::ClassifierThreshold", ptr %7, i32 0, i32 2
  %16 = load ptr, ptr %15, align 8, !tbaa !171
  %17 = load float, ptr %5, align 4, !tbaa !38
  call void @_ZN2cv6detail8tracking15online_boosting26EstimatedGaussDistribution6updateEf(ptr noundef nonnull align 8 dereferenceable(32) %16, float noundef %17)
  br label %18

18:                                               ; preds = %14, %10
  %19 = getelementptr inbounds nuw %"class.cv::detail::tracking::online_boosting::ClassifierThreshold", ptr %7, i32 0, i32 1
  %20 = load ptr, ptr %19, align 8, !tbaa !169
  %21 = call noundef float @_ZN2cv6detail8tracking15online_boosting26EstimatedGaussDistribution7getMeanEv(ptr noundef nonnull align 8 dereferenceable(32) %20)
  %22 = getelementptr inbounds nuw %"class.cv::detail::tracking::online_boosting::ClassifierThreshold", ptr %7, i32 0, i32 2
  %23 = load ptr, ptr %22, align 8, !tbaa !171
  %24 = call noundef float @_ZN2cv6detail8tracking15online_boosting26EstimatedGaussDistribution7getMeanEv(ptr noundef nonnull align 8 dereferenceable(32) %23)
  %25 = fadd float %21, %24
  %26 = fdiv float %25, 2.000000e+00
  %27 = getelementptr inbounds nuw %"class.cv::detail::tracking::online_boosting::ClassifierThreshold", ptr %7, i32 0, i32 3
  store float %26, ptr %27, align 8, !tbaa !172
  %28 = getelementptr inbounds nuw %"class.cv::detail::tracking::online_boosting::ClassifierThreshold", ptr %7, i32 0, i32 1
  %29 = load ptr, ptr %28, align 8, !tbaa !169
  %30 = call noundef float @_ZN2cv6detail8tracking15online_boosting26EstimatedGaussDistribution7getMeanEv(ptr noundef nonnull align 8 dereferenceable(32) %29)
  %31 = getelementptr inbounds nuw %"class.cv::detail::tracking::online_boosting::ClassifierThreshold", ptr %7, i32 0, i32 2
  %32 = load ptr, ptr %31, align 8, !tbaa !171
  %33 = call noundef float @_ZN2cv6detail8tracking15online_boosting26EstimatedGaussDistribution7getMeanEv(ptr noundef nonnull align 8 dereferenceable(32) %32)
  %34 = fcmp ogt float %30, %33
  %35 = select i1 %34, i32 1, i32 -1
  %36 = getelementptr inbounds nuw %"class.cv::detail::tracking::online_boosting::ClassifierThreshold", ptr %7, i32 0, i32 4
  store i32 %35, ptr %36, align 4, !tbaa !173
  ret void
}