; Function Attrs: mustprogress nofree nounwind willreturn memory(readwrite, inaccessiblemem: write) uwtable
define hidden void @_ZN2cv6detail8tracking15online_boosting19ClassifierThreshold6updateEfi(ptr noundef nonnull align 8 captures(none) dereferenceable(32) initializes((24, 32)) %0, float noundef %1, i32 noundef %2) local_unnamed_addr #14 align 2 {
  %4 = icmp eq i32 %2, 1
  br i1 %4, label %5, label %40

5:                                                ; preds = %3
  %6 = getelementptr inbounds nuw i8, ptr %0, i64 8
  %7 = load ptr, ptr %6, align 8, !tbaa !123
  %8 = getelementptr inbounds nuw i8, ptr %7, i64 16
  %9 = load float, ptr %8, align 8, !tbaa !124
  %10 = getelementptr inbounds nuw i8, ptr %7, i64 24
  %11 = load float, ptr %10, align 8, !tbaa !126
  %12 = fadd float %9, %11
  %13 = fdiv float %9, %12
  %14 = fcmp olt float %13, 0x3F50624DE0000000
  %.0.i = select i1 %14, float 0x3F50624DE0000000, float %13
  %15 = fsub float 1.000000e+00, %.0.i
  %16 = getelementptr inbounds nuw i8, ptr %7, i64 8
  %17 = load float, ptr %16, align 8, !tbaa !127
  %18 = fmul float %17, %15
  %19 = tail call float @llvm.fmuladd.f32(float %.0.i, float %1, float %18)
  store float %19, ptr %16, align 8, !tbaa !127
  %20 = fmul float %9, %11
  %21 = fdiv float %20, %12
  store float %21, ptr %8, align 8, !tbaa !124
  %22 = getelementptr inbounds nuw i8, ptr %7, i64 20
  %23 = load float, ptr %22, align 4, !tbaa !128
  %24 = getelementptr inbounds nuw i8, ptr %7, i64 28
  %25 = load float, ptr %24, align 4, !tbaa !129
  %26 = fadd float %23, %25
  %27 = fdiv float %23, %26
  %28 = fcmp olt float %27, 0x3F50624DE0000000
  %.1.i = select i1 %28, float 0x3F50624DE0000000, float %27
  %29 = fsub float %19, %1
  %30 = fmul float %29, %.1.i
  %31 = fsub float 1.000000e+00, %.1.i
  %32 = getelementptr inbounds nuw i8, ptr %7, i64 12
  %33 = load float, ptr %32, align 4, !tbaa !130
  %34 = fmul float %33, %31
  %35 = fmul float %33, %34
  %36 = tail call float @llvm.fmuladd.f32(float %30, float %29, float %35)
  %37 = fmul float %11, %23
  %38 = fdiv float %37, %26
  store float %38, ptr %22, align 4, !tbaa !128
  %39 = tail call noundef float @sqrtf(float noundef %36) #24, !tbaa !40
  %.inv.i = fcmp ole float %39, 1.000000e+00
  %storemerge.i = select i1 %.inv.i, float 1.000000e+00, float %39
  store float %storemerge.i, ptr %32, align 4, !tbaa !130
  %.phi.trans.insert9 = getelementptr inbounds nuw i8, ptr %0, i64 16
  %.pre10 = load ptr, ptr %.phi.trans.insert9, align 8, !tbaa !131
  %.phi.trans.insert11 = getelementptr inbounds nuw i8, ptr %.pre10, i64 8
  %.pre12 = load float, ptr %.phi.trans.insert11, align 8, !tbaa !127
  br label %75

40:                                               ; preds = %3
  %41 = getelementptr inbounds nuw i8, ptr %0, i64 16
  %42 = load ptr, ptr %41, align 8, !tbaa !131
  %43 = getelementptr inbounds nuw i8, ptr %42, i64 16
  %44 = load float, ptr %43, align 8, !tbaa !124
  %45 = getelementptr inbounds nuw i8, ptr %42, i64 24
  %46 = load float, ptr %45, align 8, !tbaa !126
  %47 = fadd float %44, %46
  %48 = fdiv float %44, %47
  %49 = fcmp olt float %48, 0x3F50624DE0000000
  %.0.i3 = select i1 %49, float 0x3F50624DE0000000, float %48
  %50 = fsub float 1.000000e+00, %.0.i3
  %51 = getelementptr inbounds nuw i8, ptr %42, i64 8
  %52 = load float, ptr %51, align 8, !tbaa !127
  %53 = fmul float %52, %50
  %54 = tail call float @llvm.fmuladd.f32(float %.0.i3, float %1, float %53)
  store float %54, ptr %51, align 8, !tbaa !127
  %55 = fmul float %44, %46
  %56 = fdiv float %55, %47
  store float %56, ptr %43, align 8, !tbaa !124
  %57 = getelementptr inbounds nuw i8, ptr %42, i64 20
  %58 = load float, ptr %57, align 4, !tbaa !128
  %59 = getelementptr inbounds nuw i8, ptr %42, i64 28
  %60 = load float, ptr %59, align 4, !tbaa !129
  %61 = fadd float %58, %60
  %62 = fdiv float %58, %61
  %63 = fcmp olt float %62, 0x3F50624DE0000000
  %.1.i4 = select i1 %63, float 0x3F50624DE0000000, float %62
  %64 = fsub float %54, %1
  %65 = fmul float %64, %.1.i4
  %66 = fsub float 1.000000e+00, %.1.i4
  %67 = getelementptr inbounds nuw i8, ptr %42, i64 12
  %68 = load float, ptr %67, align 4, !tbaa !130
  %69 = fmul float %68, %66
  %70 = fmul float %68, %69
  %71 = tail call float @llvm.fmuladd.f32(float %65, float %64, float %70)
  %72 = fmul float %46, %58
  %73 = fdiv float %72, %61
  store float %73, ptr %57, align 4, !tbaa !128
  %74 = tail call noundef float @sqrtf(float noundef %71) #24, !tbaa !40
  %.inv.i5 = fcmp ole float %74, 1.000000e+00
  %storemerge.i6 = select i1 %.inv.i5, float 1.000000e+00, float %74
  store float %storemerge.i6, ptr %67, align 4, !tbaa !130
  %.phi.trans.insert = getelementptr inbounds nuw i8, ptr %0, i64 8
  %.pre = load ptr, ptr %.phi.trans.insert, align 8, !tbaa !123
  %.phi.trans.insert7 = getelementptr inbounds nuw i8, ptr %.pre, i64 8
  %.pre8 = load float, ptr %.phi.trans.insert7, align 8, !tbaa !127
  br label %75

75:                                               ; preds = %40, %5
  %76 = phi float [ %54, %40 ], [ %.pre12, %5 ]
  %77 = phi float [ %.pre8, %40 ], [ %19, %5 ]
  %78 = fadd float %77, %76
  %79 = fmul float %78, 5.000000e-01
  %80 = getelementptr inbounds nuw i8, ptr %0, i64 24
  store float %79, ptr %80, align 8, !tbaa !89
  %81 = fcmp ogt float %77, %76
  %82 = select i1 %81, i32 1, i32 -1
  %83 = getelementptr inbounds nuw i8, ptr %0, i64 28
  store i32 %82, ptr %83, align 4, !tbaa !86
  ret void
}